; Function Attrs: mustprogress nofree norecurse nosync nounwind willreturn memory(argmem: readwrite) uwtable
define void @_ZNK5boost4urls6detail8url_impl7pct_getEi(ptr dead_on_unwind noalias nocapture writable writeonly sret(%"class.boost::urls::pct_string_view") align 8 %0, ptr nocapture noundef nonnull readonly align 8 dereferenceable(171) %1, i32 noundef %2) local_unnamed_addr #6 align 2 {
  %4 = load ptr, ptr %1, align 8, !tbaa !31
  %5 = icmp eq i32 %2, -1
  %6 = getelementptr inbounds nuw i8, ptr %1, i64 8
  br i1 %5, label %_ZNK5boost4urls6detail8url_impl6offsetEi.exit.i.thread, label %_ZNK5boost4urls6detail8url_impl6offsetEi.exit

_ZNK5boost4urls6detail8url_impl6offsetEi.exit.i.thread: ; preds = %3
  %7 = load i64, ptr %6, align 8, !tbaa !13
  br label %_ZNK5boost4urls6detail8url_impl6offsetEi.exit3.i

_ZNK5boost4urls6detail8url_impl6offsetEi.exit:    ; preds = %3
  %8 = sext i32 %2 to i64
  %9 = getelementptr inbounds [8 x i64], ptr %6, i64 0, i64 %8
  %10 = load i64, ptr %9, align 8, !tbaa !13
  %11 = getelementptr inbounds nuw i8, ptr %4, i64 %10
  %12 = icmp eq i32 %2, 7
  br i1 %12, label %_ZNK5boost4urls6detail8url_impl3lenEi.exit, label %13

13:                                               ; preds = %_ZNK5boost4urls6detail8url_impl6offsetEi.exit
  %14 = add nuw nsw i32 %2, 1
  %15 = icmp eq i32 %14, -1
  br i1 %15, label %_ZNK5boost4urls6detail8url_impl6offsetEi.exit3.i, label %_ZNK5boost4urls6detail8url_impl6offsetEi.exit.i

_ZNK5boost4urls6detail8url_impl6offsetEi.exit.i:  ; preds = %13
  %16 = sext i32 %14 to i64
  %17 = getelementptr inbounds [8 x i64], ptr %6, i64 0, i64 %16
  %18 = load i64, ptr %17, align 8, !tbaa !13
  br label %_ZNK5boost4urls6detail8url_impl6offsetEi.exit3.i

_ZNK5boost4urls6detail8url_impl6offsetEi.exit3.i: ; preds = %13, %_ZNK5boost4urls6detail8url_impl6offsetEi.exit.i, %_ZNK5boost4urls6detail8url_impl6offsetEi.exit.i.thread
  %.pre.pre-phi = phi i64 [ -1, %_ZNK5boost4urls6detail8url_impl6offsetEi.exit.i.thread ], [ %8, %_ZNK5boost4urls6detail8url_impl6offsetEi.exit.i ], [ -2, %13 ]
  %19 = phi ptr [ %4, %_ZNK5boost4urls6detail8url_impl6offsetEi.exit.i.thread ], [ %11, %_ZNK5boost4urls6detail8url_impl6offsetEi.exit.i ], [ %11, %13 ]
  %20 = phi i64 [ %7, %_ZNK5boost4urls6detail8url_impl6offsetEi.exit.i.thread ], [ %18, %_ZNK5boost4urls6detail8url_impl6offsetEi.exit.i ], [ 0, %13 ]
  %21 = phi i64 [ 0, %_ZNK5boost4urls6detail8url_impl6offsetEi.exit.i.thread ], [ %10, %_ZNK5boost4urls6detail8url_impl6offsetEi.exit.i ], [ %10, %13 ]
  %22 = sub i64 %20, %21
  br label %_ZNK5boost4urls6detail8url_impl3lenEi.exit

_ZNK5boost4urls6detail8url_impl3lenEi.exit:       ; preds = %_ZNK5boost4urls6detail8url_impl6offsetEi.exit, %_ZNK5boost4urls6detail8url_impl6offsetEi.exit3.i
  %.pre-phi = phi i64 [ 7, %_ZNK5boost4urls6detail8url_impl6offsetEi.exit ], [ %.pre.pre-phi, %_ZNK5boost4urls6detail8url_impl6offsetEi.exit3.i ]
  %23 = phi ptr [ %11, %_ZNK5boost4urls6detail8url_impl6offsetEi.exit ], [ %19, %_ZNK5boost4urls6detail8url_impl6offsetEi.exit3.i ]
  %24 = phi i64 [ 0, %_ZNK5boost4urls6detail8url_impl6offsetEi.exit ], [ %22, %_ZNK5boost4urls6detail8url_impl6offsetEi.exit3.i ]
  %25 = getelementptr inbounds nuw i8, ptr %1, i64 72
  %26 = getelementptr inbounds [7 x i64], ptr %25, i64 0, i64 %.pre-phi
  %27 = load i64, ptr %26, align 8, !tbaa !13
  store ptr %23, ptr %0, align 8, !tbaa !32, !alias.scope !33
  %28 = getelementptr inbounds nuw i8, ptr %0, i64 8
  store i64 %24, ptr %28, align 8, !tbaa !16, !alias.scope !33
  %29 = getelementptr inbounds nuw i8, ptr %0, i64 16
  store i64 %27, ptr %29, align 8, !tbaa !18, !alias.scope !33
  ret void
}